target datalayout = "e-m:e-p270:32:32-p271:32:32-p272:64:64-i64:64-i128:128-f80:128-n8:16:32:64-S128"
target triple = "x86_64-pc-linux-gnu"

%"class.llvm::opt::Option" = type { ptr, ptr }
%"struct.llvm::opt::OptTable::Info" = type { %"class.llvm::ArrayRef.0", %"class.llvm::StringLiteral", ptr, %"struct.std::array", ptr, i32, i8, i8, i32, i32, i16, i16, ptr, ptr }
%"class.llvm::ArrayRef.0" = type { ptr, i64 }
%"class.llvm::StringLiteral" = type { %"class.llvm::StringRef" }
%"class.llvm::StringRef" = type { ptr, i64 }
%"struct.std::array" = type { [1 x %"struct.std::pair"] }
%"struct.std::pair" = type { %"struct.std::array.1", ptr }
%"struct.std::array.1" = type { [2 x i32] }
%"class.llvm::opt::Visibility" = type { i32 }
%class.anon.43 = type { %"class.llvm::opt::Visibility" }

; Function Attrs: mustprogress nounwind uwtable
define linkonce_odr hidden noundef zeroext i1 @_ZNK4llvm3opt6Option17hasVisibilityFlagEj(ptr noundef nonnull align 8 dereferenceable(16) %0, i32 noundef %1) #0 comdat align 2 {
  %3 = alloca ptr, align 8
  %4 = alloca i32, align 4
  store ptr %0, ptr %3, align 8
  store i32 %1, ptr %4, align 4
  %5 = load ptr, ptr %3, align 8
  %6 = getelementptr inbounds nuw %"class.llvm::opt::Option", ptr %5, i32 0, i32 0
  %7 = load ptr, ptr %6, align 8
  %8 = getelementptr inbounds nuw %"struct.llvm::opt::OptTable::Info", ptr %7, i32 0, i32 9
  %9 = load i32, ptr %8, align 4
  %10 = load i32, ptr %4, align 4
  %11 = and i32 %9, %10
  %12 = icmp ne i32 %11, 0
  ret i1 %12
}

; Function Attrs: mustprogress nounwind uwtable
define linkonce_odr hidden noundef i32 @_ZNK4llvm3opt10VisibilitycvjEv(ptr noundef nonnull align 4 dereferenceable(4) %0) #0 comdat align 2 {
  %2 = alloca ptr, align 8
  store ptr %0, ptr %2, align 8
  %3 = load ptr, ptr %2, align 8
  %4 = getelementptr inbounds nuw %"class.llvm::opt::Visibility", ptr %3, i32 0, i32 0
  %5 = load i32, ptr %4, align 4
  ret i32 %5
}

; Function Attrs: mustprogress nounwind uwtable
define internal noundef zeroext i1 @"_ZZNK4llvm3opt8OptTable9ParseArgsENS_8ArrayRefIPKcEERjS6_NS0_10VisibilityEENK3$_0clERKNS0_6OptionE"(ptr noundef nonnull align 4 dereferenceable(4) %0, ptr noundef nonnull align 8 dereferenceable(16) %1) #0 align 2 {
  %3 = alloca ptr, align 8
  %4 = alloca ptr, align 8
  store ptr %0, ptr %3, align 8
  store ptr %1, ptr %4, align 8
  %5 = load ptr, ptr %3, align 8
  %6 = load ptr, ptr %4, align 8
  %7 = getelementptr inbounds nuw %class.anon.43, ptr %5, i32 0, i32 0
  %8 = call noundef i32 @_ZNK4llvm3opt10VisibilitycvjEv(ptr noundef nonnull align 4 dereferenceable(4) %7)
  %9 = call noundef zeroext i1 @_ZNK4llvm3opt6Option17hasVisibilityFlagEj(ptr noundef nonnull align 8 dereferenceable(16) %6, i32 noundef %8)
  %10 = xor i1 %9, true
  ret i1 %10
}

; Function Attrs: mustprogress nounwind uwtable
define linkonce_odr hidden noundef ptr @_ZNKSt9_Any_data9_M_accessEv(ptr noundef nonnull align 8 dereferenceable(16) %0) #0 comdat align 2 {
  %2 = alloca ptr, align 8
  store ptr %0, ptr %2, align 8
  %3 = load ptr, ptr %2, align 8
  %4 = getelementptr inbounds [16 x i8], ptr %3, i64 0, i64 0
  ret ptr %4
}

; Function Attrs: mustprogress nounwind uwtable
define internal noundef zeroext i1 @"_ZSt13__invoke_implIbRZNK4llvm3opt8OptTable9ParseArgsENS0_8ArrayRefIPKcEERjS7_NS1_10VisibilityEE3$_0JRKNS1_6OptionEEET_St14__invoke_otherOT0_DpOT1_"(ptr noundef nonnull align 4 dereferenceable(4) %0, ptr noundef nonnull align 8 dereferenceable(16) %1) #0 {
  %3 = alloca ptr, align 8
  %4 = alloca ptr, align 8
  store ptr %0, ptr %3, align 8
  store ptr %1, ptr %4, align 8
  %5 = load ptr, ptr %3, align 8
  %6 = load ptr, ptr %4, align 8
  %7 = call noundef zeroext i1 @"_ZZNK4llvm3opt8OptTable9ParseArgsENS_8ArrayRefIPKcEERjS6_NS0_10VisibilityEENK3$_0clERKNS0_6OptionE"(ptr noundef nonnull align 4 dereferenceable(4) %5, ptr noundef nonnull align 8 dereferenceable(16) %6)
  ret i1 %7
}

; Function Attrs: mustprogress nounwind uwtable
define internal noundef nonnull align 4 dereferenceable(4) ptr @"_ZNKSt9_Any_data9_M_accessIZNK4llvm3opt8OptTable9ParseArgsENS1_8ArrayRefIPKcEERjS8_NS2_10VisibilityEE3$_0EERKT_v"(ptr noundef nonnull align 8 dereferenceable(16) %0) #0 align 2 {
  %2 = alloca ptr, align 8
  store ptr %0, ptr %2, align 8
  %3 = load ptr, ptr %2, align 8
  %4 = call noundef ptr @_ZNKSt9_Any_data9_M_accessEv(ptr noundef nonnull align 8 dereferenceable(16) %3) #12
  ret ptr %4
}

; Function Attrs: mustprogress nounwind uwtable
define internal noundef zeroext i1 @"_ZSt10__invoke_rIbRZNK4llvm3opt8OptTable9ParseArgsENS0_8ArrayRefIPKcEERjS7_NS1_10VisibilityEE3$_0JRKNS1_6OptionEEENSt9enable_ifIX16is_invocable_r_vIT_T0_DpT1_EESF_E4typeEOSG_DpOSH_"(ptr noundef nonnull align 4 dereferenceable(4) %0, ptr noundef nonnull align 8 dereferenceable(16) %1) #0 {
  %3 = alloca ptr, align 8
  %4 = alloca ptr, align 8
  store ptr %0, ptr %3, align 8
  store ptr %1, ptr %4, align 8
  %5 = load ptr, ptr %3, align 8
  %6 = load ptr, ptr %4, align 8
  %7 = call noundef zeroext i1 @"_ZSt13__invoke_implIbRZNK4llvm3opt8OptTable9ParseArgsENS0_8ArrayRefIPKcEERjS7_NS1_10VisibilityEE3$_0JRKNS1_6OptionEEET_St14__invoke_otherOT0_DpOT1_"(ptr noundef nonnull align 4 dereferenceable(4) %5, ptr noundef nonnull align 8 dereferenceable(16) %6)
  ret i1 %7
}

; Function Attrs: mustprogress nounwind uwtable
define internal noundef ptr @"_ZNSt14_Function_base13_Base_managerIZNK4llvm3opt8OptTable9ParseArgsENS1_8ArrayRefIPKcEERjS8_NS2_10VisibilityEE3$_0E14_M_get_pointerERKSt9_Any_data"(ptr noundef nonnull align 8 dereferenceable(16) %0) #0 align 2 {
  %2 = alloca ptr, align 8
  %3 = alloca ptr, align 8
  store ptr %0, ptr %2, align 8
  %4 = load ptr, ptr %2, align 8
  %5 = call noundef nonnull align 4 dereferenceable(4) ptr @"_ZNKSt9_Any_data9_M_accessIZNK4llvm3opt8OptTable9ParseArgsENS1_8ArrayRefIPKcEERjS8_NS2_10VisibilityEE3$_0EERKT_v"(ptr noundef nonnull align 8 dereferenceable(16) %4) #12
  store ptr %5, ptr %3, align 8
  %6 = load ptr, ptr %3, align 8
  ret ptr %6
}

; Function Attrs: mustprogress nounwind uwtable
define internal noundef zeroext i1 @"_ZNSt17_Function_handlerIFbRKN4llvm3opt6OptionEEZNKS1_8OptTable9ParseArgsENS0_8ArrayRefIPKcEERjSB_NS1_10VisibilityEE3$_0E9_M_invokeERKSt9_Any_dataS4_"(ptr noundef nonnull align 8 dereferenceable(16) %0, ptr noundef nonnull align 8 dereferenceable(16) %1) #0 align 2 {
  %3 = alloca ptr, align 8
  %4 = alloca ptr, align 8
  store ptr %0, ptr %3, align 8
  store ptr %1, ptr %4, align 8
  %5 = load ptr, ptr %3, align 8
  %6 = call noundef ptr @"_ZNSt14_Function_base13_Base_managerIZNK4llvm3opt8OptTable9ParseArgsENS1_8ArrayRefIPKcEERjS8_NS2_10VisibilityEE3$_0E14_M_get_pointerERKSt9_Any_data"(ptr noundef nonnull align 8 dereferenceable(16) %5) #12
  %7 = load ptr, ptr %4, align 8
  %8 = call noundef zeroext i1 @"_ZSt10__invoke_rIbRZNK4llvm3opt8OptTable9ParseArgsENS0_8ArrayRefIPKcEERjS7_NS1_10VisibilityEE3$_0JRKNS1_6OptionEEENSt9enable_ifIX16is_invocable_r_vIT_T0_DpT1_EESF_E4typeEOSG_DpOSH_"(ptr noundef nonnull align 4 dereferenceable(4) %6, ptr noundef nonnull align 8 dereferenceable(16) %7)
  ret i1 %8
}