; Function Attrs: mustprogress nofree norecurse nosync nounwind willreturn memory(read, inaccessiblemem: none) uwtable
define internal noundef zeroext i1 @"_ZNSt17_Function_handlerIFbRKN4llvm3opt6OptionEEZNKS1_8OptTable9ParseArgsENS0_8ArrayRefIPKcEERjSB_NS1_10VisibilityEE3$_0E9_M_invokeERKSt9_Any_dataS4_"(ptr noundef nonnull readonly align 8 captures(none) dereferenceable(16) %0, ptr noundef nonnull readonly align 8 captures(none) dereferenceable(16) %1) #15 align 2 {
  %.val = load i32, ptr %0, align 8
  %.val2 = load ptr, ptr %1, align 8
  %3 = getelementptr i8, ptr %.val2, i64 76
  %.val2.val = load i32, ptr %3, align 4
  %4 = and i32 %.val2.val, %.val
  %.not.i.i.i = icmp eq i32 %4, 0
  ret i1 %.not.i.i.i
}